target datalayout = "e-m:e-p270:32:32-p271:32:32-p272:64:64-i64:64-i128:128-f80:128-n8:16:32:64-S128"
target triple = "x86_64-pc-linux-gnu"

%"class.llvm::X86TTIImpl" = type { %"class.llvm::BasicTTIImplBase", ptr, ptr, %"class.llvm::FeatureBitset" }
%"class.llvm::BasicTTIImplBase" = type { ptr, %"class.llvm::TargetTransformInfoImplCRTPBase" }
%"class.llvm::TargetTransformInfoImplCRTPBase" = type { %"class.llvm::TargetTransformInfoImplBase" }
%"class.llvm::TargetTransformInfoImplBase" = type { ptr }
%"class.llvm::FeatureBitset" = type { %"struct.std::array" }
%"struct.std::array" = type { [5 x i64] }
%"class.llvm::X86Subtarget" = type { %"struct.llvm::X86GenSubtargetInfo", i32, ptr, i32, i8, i8, i8, i8, i8, i8, i8, i8, i8, i8, i8, i8, i8, i8, i8, i8, i8, i8, i8, i8, i8, i8, i8, i8, i8, i8, i8, i8, i8, i8, i8, i8, i8, i8, i8, i8, i8, i8, i8, i8, i8, i8, i8, i8, i8, i8, i8, i8, i8, i8, i8, i8, i8, i8, i8, i8, i8, i8, i8, i8, i8, i8, i8, i8, i8, i8, i8, i8, i8, i8, i8, i8, i8, i8, i8, i8, i8, i8, i8, i8, i8, i8, i8, i8, i8, i8, i8, i8, i8, i8, i8, i8, i8, i8, i8, i8, i8, i8, i8, i8, i8, i8, i8, i8, i8, i8, i8, i8, i8, i8, i8, i8, i8, i8, i8, i8, i8, i8, i8, i8, i8, i8, i8, i8, i8, i8, i8, i8, i8, i8, i8, i8, i8, i8, i8, i8, i8, i8, i8, i8, i8, i8, i8, i8, i8, i8, i8, i8, i8, i8, i8, i8, i8, i8, i8, i8, i8, i8, i8, i8, i8, i8, i8, i8, i8, i8, i8, i8, i8, i8, i8, i8, i8, i8, i8, i8, i8, i8, i8, i8, i8, i8, %"struct.llvm::Align", %"struct.llvm::Align", i32, %"class.llvm::Triple", %"class.std::unique_ptr", %"class.std::unique_ptr.3", %"class.std::unique_ptr.11", %"class.std::unique_ptr.19", %"struct.llvm::MaybeAlign", i32, i32, i32, %"class.llvm::X86SelectionDAGInfo", %"class.llvm::X86InstrInfo", %"class.llvm::X86TargetLowering", %"class.llvm::X86FrameLowering" }
%"struct.llvm::X86GenSubtargetInfo" = type { %"class.llvm::TargetSubtargetInfo" }
%"class.llvm::TargetSubtargetInfo" = type { %"class.llvm::MCSubtargetInfo" }
%"class.llvm::MCSubtargetInfo" = type { ptr, %"class.llvm::Triple", %"class.std::__cxx11::basic_string", %"class.std::__cxx11::basic_string", %"class.llvm::ArrayRef", %"class.llvm::ArrayRef.0", ptr, ptr, ptr, ptr, ptr, ptr, ptr, %"class.llvm::FeatureBitset", %"class.std::__cxx11::basic_string" }
%"class.llvm::ArrayRef" = type { ptr, i64 }
%"class.llvm::ArrayRef.0" = type { ptr, i64 }
%"class.std::__cxx11::basic_string" = type { %"struct.std::__cxx11::basic_string<char>::_Alloc_hider", i64, %union.anon }
%"struct.std::__cxx11::basic_string<char>::_Alloc_hider" = type { ptr }
%union.anon = type { i64, [8 x i8] }
%"struct.llvm::Align" = type { i8 }
%"class.llvm::Triple" = type { %"class.std::__cxx11::basic_string", i32, i32, i32, i32, i32, i32 }
%"class.std::unique_ptr" = type { %"struct.std::__uniq_ptr_data" }
%"struct.std::__uniq_ptr_data" = type { %"class.std::__uniq_ptr_impl" }
%"class.std::__uniq_ptr_impl" = type { %"class.std::tuple" }
%"class.std::tuple" = type { %"struct.std::_Tuple_impl" }
%"struct.std::_Tuple_impl" = type { %"struct.std::_Head_base.2" }
%"struct.std::_Head_base.2" = type { ptr }
%"class.std::unique_ptr.3" = type { %"struct.std::__uniq_ptr_data.4" }
%"struct.std::__uniq_ptr_data.4" = type { %"class.std::__uniq_ptr_impl.5" }
%"class.std::__uniq_ptr_impl.5" = type { %"class.std::tuple.6" }
%"class.std::tuple.6" = type { %"struct.std::_Tuple_impl.7" }
%"struct.std::_Tuple_impl.7" = type { %"struct.std::_Head_base.10" }
%"struct.std::_Head_base.10" = type { ptr }
%"class.std::unique_ptr.11" = type { %"struct.std::__uniq_ptr_data.12" }
%"struct.std::__uniq_ptr_data.12" = type { %"class.std::__uniq_ptr_impl.13" }
%"class.std::__uniq_ptr_impl.13" = type { %"class.std::tuple.14" }
%"class.std::tuple.14" = type { %"struct.std::_Tuple_impl.15" }
%"struct.std::_Tuple_impl.15" = type { %"struct.std::_Head_base.18" }
%"struct.std::_Head_base.18" = type { ptr }
%"class.std::unique_ptr.19" = type { %"struct.std::__uniq_ptr_data.20" }
%"struct.std::__uniq_ptr_data.20" = type { %"class.std::__uniq_ptr_impl.21" }
%"class.std::__uniq_ptr_impl.21" = type { %"class.std::tuple.22" }
%"class.std::tuple.22" = type { %"struct.std::_Tuple_impl.23" }
%"struct.std::_Tuple_impl.23" = type { %"struct.std::_Head_base.26" }
%"struct.std::_Head_base.26" = type { ptr }
%"struct.llvm::MaybeAlign" = type { %"class.std::optional" }
%"class.std::optional" = type { %"struct.std::_Optional_base" }
%"struct.std::_Optional_base" = type { %"struct.std::_Optional_payload" }
%"struct.std::_Optional_payload" = type { %"struct.std::_Optional_payload_base" }
%"struct.std::_Optional_payload_base" = type { %"union.std::_Optional_payload_base<llvm::Align>::_Storage", i8 }
%"union.std::_Optional_payload_base<llvm::Align>::_Storage" = type { %"struct.std::_Optional_payload_base<llvm::Align>::_Empty_byte" }
%"struct.std::_Optional_payload_base<llvm::Align>::_Empty_byte" = type { i8 }
%"class.llvm::X86SelectionDAGInfo" = type { %"class.llvm::SelectionDAGTargetInfo" }
%"class.llvm::SelectionDAGTargetInfo" = type { ptr }
%"class.llvm::X86InstrInfo" = type { %"struct.llvm::X86GenInstrInfo", ptr, %"class.llvm::X86RegisterInfo" }
%"struct.llvm::X86GenInstrInfo" = type { %"class.llvm::TargetInstrInfo" }
%"class.llvm::TargetInstrInfo" = type { ptr, %"class.llvm::MCInstrInfo.base", %"class.std::unique_ptr.27", i32, i32, i32, i32 }
%"class.llvm::MCInstrInfo.base" = type <{ ptr, ptr, ptr, ptr, ptr, i32 }>
%"class.std::unique_ptr.27" = type { %"struct.std::__uniq_ptr_data.28" }
%"struct.std::__uniq_ptr_data.28" = type { %"class.std::__uniq_ptr_impl.29" }
%"class.std::__uniq_ptr_impl.29" = type { %"class.std::tuple.30" }
%"class.std::tuple.30" = type { %"struct.std::_Tuple_impl.31" }
%"struct.std::_Tuple_impl.31" = type { %"struct.std::_Head_base.34" }
%"struct.std::_Head_base.34" = type { ptr }
%"class.llvm::X86RegisterInfo" = type { %"struct.llvm::X86GenRegisterInfo.base", i8, i8, i32, i32, i32, i32 }
%"struct.llvm::X86GenRegisterInfo.base" = type { %"class.llvm::TargetRegisterInfo.base" }
%"class.llvm::TargetRegisterInfo.base" = type <{ ptr, %"class.llvm::MCRegisterInfo", ptr, ptr, ptr, ptr, ptr, ptr, %"struct.llvm::LaneBitmask", ptr, ptr, i32 }>
%"class.llvm::MCRegisterInfo" = type { ptr, i32, %"class.llvm::MCRegister", %"class.llvm::MCRegister", ptr, i32, i32, ptr, ptr, ptr, ptr, ptr, ptr, i32, ptr, i32, i32, i32, i32, ptr, ptr, ptr, ptr, %"class.llvm::DenseMap", %"class.llvm::DenseMap", %"class.std::vector" }
%"class.llvm::MCRegister" = type { i32 }
%"class.llvm::DenseMap" = type <{ ptr, i32, i32, i32, [4 x i8] }>
%"class.std::vector" = type { %"struct.std::_Vector_base" }
%"struct.std::_Vector_base" = type { %"struct.std::_Vector_base<std::vector<unsigned short>, std::allocator<std::vector<unsigned short>>>::_Vector_impl" }
%"struct.std::_Vector_base<std::vector<unsigned short>, std::allocator<std::vector<unsigned short>>>::_Vector_impl" = type { %"struct.std::_Vector_base<std::vector<unsigned short>, std::allocator<std::vector<unsigned short>>>::_Vector_impl_data" }
%"struct.std::_Vector_base<std::vector<unsigned short>, std::allocator<std::vector<unsigned short>>>::_Vector_impl_data" = type { ptr, ptr, ptr }
%"struct.llvm::LaneBitmask" = type { i64 }
%"class.llvm::X86TargetLowering" = type { %"class.llvm::TargetLowering.base", ptr, %"class.std::vector.44" }
%"class.llvm::TargetLowering.base" = type { %"class.llvm::TargetLoweringBase.base" }
%"class.llvm::TargetLoweringBase.base" = type <{ ptr, ptr, i8, i8, [6 x i8], %"class.llvm::DenseMap.38", i8, [3 x i8], i32, i32, i32, i8, %"struct.llvm::Align", %"struct.llvm::Align", %"struct.llvm::Align", %"struct.llvm::Align", [3 x i8], i32, i32, i32, i32, i32, i8, [3 x i8], %"class.llvm::Register", [4 x i8], [233 x ptr], [233 x i16], [233 x %"class.llvm::MVT"], [4 x i8], [233 x ptr], [233 x i8], i8, [233 x %"class.llvm::MVT"], [233 x [491 x i8]], i8, [233 x [233 x i16]], [233 x [233 x i16]], [233 x [233 x i8]], i8, [233 x [5 x i16]], [24 x [30 x i32]], %"class.llvm::TargetLoweringBase::ValueTypeActionImpl", [62 x i8], i8, %"class.std::map", %"struct.llvm::RTLIB::RuntimeLibcallsInfo", [700 x i32], i32, i32, i32, i32, i32, i32, i32, i32, i32, i32, i8, i8, i8 }>
%"class.llvm::DenseMap.38" = type <{ ptr, i32, i32, i32, [4 x i8] }>
%"class.llvm::Register" = type { i32 }
%"class.llvm::MVT" = type { i16 }
%"class.llvm::TargetLoweringBase::ValueTypeActionImpl" = type { [233 x i8] }
%"class.std::map" = type { %"class.std::_Rb_tree" }
%"class.std::_Rb_tree" = type { %"struct.std::_Rb_tree<std::pair<unsigned int, llvm::MVT::SimpleValueType>, std::pair<const std::pair<unsigned int, llvm::MVT::SimpleValueType>, llvm::MVT::SimpleValueType>, std::_Select1st<std::pair<const std::pair<unsigned int, llvm::MVT::SimpleValueType>, llvm::MVT::SimpleValueType>>, std::less<std::pair<unsigned int, llvm::MVT::SimpleValueType>>>::_Rb_tree_impl" }
%"struct.std::_Rb_tree<std::pair<unsigned int, llvm::MVT::SimpleValueType>, std::pair<const std::pair<unsigned int, llvm::MVT::SimpleValueType>, llvm::MVT::SimpleValueType>, std::_Select1st<std::pair<const std::pair<unsigned int, llvm::MVT::SimpleValueType>, llvm::MVT::SimpleValueType>>, std::less<std::pair<unsigned int, llvm::MVT::SimpleValueType>>>::_Rb_tree_impl" = type { [8 x i8], %"struct.std::_Rb_tree_header" }
%"struct.std::_Rb_tree_header" = type { %"struct.std::_Rb_tree_node_base", i64 }
%"struct.std::_Rb_tree_node_base" = type { i32, ptr, ptr, ptr }
%"struct.llvm::RTLIB::RuntimeLibcallsInfo" = type { [701 x ptr], [700 x i32] }
%"class.std::vector.44" = type { %"struct.std::_Vector_base.45" }
%"struct.std::_Vector_base.45" = type { %"struct.std::_Vector_base<llvm::APFloat, std::allocator<llvm::APFloat>>::_Vector_impl" }
%"struct.std::_Vector_base<llvm::APFloat, std::allocator<llvm::APFloat>>::_Vector_impl" = type { %"struct.std::_Vector_base<llvm::APFloat, std::allocator<llvm::APFloat>>::_Vector_impl_data" }
%"struct.std::_Vector_base<llvm::APFloat, std::allocator<llvm::APFloat>>::_Vector_impl_data" = type { ptr, ptr, ptr }
%"class.llvm::X86FrameLowering" = type <{ %"class.llvm::TargetFrameLowering.base", [3 x i8], ptr, ptr, ptr, i32, i8, i8, i8, i8, i32, [4 x i8] }>
%"class.llvm::TargetFrameLowering.base" = type <{ ptr, i32, %"struct.llvm::Align", %"struct.llvm::Align", [2 x i8], i32, i8 }>
%"class.llvm::ElementCount" = type { %"class.llvm::details::FixedOrScalableQuantity.base.56", [3 x i8] }
%"class.llvm::details::FixedOrScalableQuantity.base.56" = type <{ i32, i8 }>
%"class.llvm::details::FixedOrScalableQuantity.55" = type <{ i32, i8, [3 x i8] }>

; Function Attrs: mustprogress nounwind uwtable
define linkonce_odr hidden noundef i32 @_ZNK4llvm7details23FixedOrScalableQuantityINS_12ElementCountEjE16getKnownMinValueEv(ptr noundef nonnull align 4 dereferenceable(5) %0) #0 comdat align 2 {
  %2 = alloca ptr, align 8
  store ptr %0, ptr %2, align 8
  %3 = load ptr, ptr %2, align 8
  %4 = getelementptr inbounds nuw %"class.llvm::details::FixedOrScalableQuantity.55", ptr %3, i32 0, i32 0
  %5 = load i32, ptr %4, align 4
  ret i32 %5
}

; Function Attrs: mustprogress nounwind uwtable
define linkonce_odr hidden noundef zeroext i1 @_ZNK4llvm7details23FixedOrScalableQuantityINS_12ElementCountEjE10isScalableEv(ptr noundef nonnull align 4 dereferenceable(5) %0) #0 comdat align 2 {
  %2 = alloca ptr, align 8
  store ptr %0, ptr %2, align 8
  %3 = load ptr, ptr %2, align 8
  %4 = getelementptr inbounds nuw %"class.llvm::details::FixedOrScalableQuantity.55", ptr %3, i32 0, i32 1
  %5 = load i8, ptr %4, align 4
  %6 = trunc i8 %5 to i1
  ret i1 %6
}

; Function Attrs: mustprogress nounwind uwtable
define linkonce_odr hidden noundef zeroext i1 @_ZNK4llvm12X86Subtarget6hasAVXEv(ptr noundef nonnull align 8 dereferenceable(409248) %0) #0 comdat align 2 {
  %2 = alloca ptr, align 8
  store ptr %0, ptr %2, align 8
  %3 = load ptr, ptr %2, align 8
  %4 = getelementptr inbounds nuw %"class.llvm::X86Subtarget", ptr %3, i32 0, i32 3
  %5 = load i32, ptr %4, align 8
  %6 = icmp sge i32 %5, 7
  ret i1 %6
}

; Function Attrs: mustprogress nounwind uwtable
define linkonce_odr hidden noundef zeroext i1 @_ZNK4llvm12X86Subtarget6isAtomEv(ptr noundef nonnull align 8 dereferenceable(409248) %0) #0 comdat align 2 {
  %2 = alloca ptr, align 8
  store ptr %0, ptr %2, align 8
  %3 = load ptr, ptr %2, align 8
  %4 = getelementptr inbounds nuw %"class.llvm::X86Subtarget", ptr %3, i32 0, i32 152
  %5 = load i8, ptr %4, align 8
  %6 = trunc i8 %5 to i1
  ret i1 %6
}

; Function Attrs: mustprogress nounwind uwtable
define linkonce_odr hidden noundef zeroext i1 @_ZNK4llvm12ElementCount8isScalarEv(ptr noundef nonnull align 4 dereferenceable(5) %0) #0 comdat align 2 {
  %2 = alloca ptr, align 8
  store ptr %0, ptr %2, align 8
  %3 = load ptr, ptr %2, align 8
  %4 = call noundef zeroext i1 @_ZNK4llvm7details23FixedOrScalableQuantityINS_12ElementCountEjE10isScalableEv(ptr noundef nonnull align 4 dereferenceable(5) %3)
  br i1 %4, label %8, label %5

5:                                                ; preds = %1
  %6 = call noundef i32 @_ZNK4llvm7details23FixedOrScalableQuantityINS_12ElementCountEjE16getKnownMinValueEv(ptr noundef nonnull align 4 dereferenceable(5) %3)
  %7 = icmp eq i32 %6, 1
  br label %8

8:                                                ; preds = %5, %1
  %9 = phi i1 [ false, %1 ], [ %7, %5 ]
  ret i1 %9
}

; Function Attrs: mustprogress nounwind uwtable
define dso_local noundef i32 @_ZN4llvm10X86TTIImpl22getMaxInterleaveFactorENS_12ElementCountE(ptr noundef nonnull align 8 dereferenceable(72) %0, i64 %1) #0 align 2 {
  %3 = alloca i32, align 4
  %4 = alloca %"class.llvm::ElementCount", align 4
  %5 = alloca ptr, align 8
  store i64 %1, ptr %4, align 4
  store ptr %0, ptr %5, align 8
  %6 = load ptr, ptr %5, align 8
  %7 = call noundef zeroext i1 @_ZNK4llvm12ElementCount8isScalarEv(ptr noundef nonnull align 4 dereferenceable(5) %4)
  br i1 %7, label %8, label %9

8:                                                ; preds = %2
  store i32 1, ptr %3, align 4
  br label %20

9:                                                ; preds = %2
  %10 = getelementptr inbounds nuw %"class.llvm::X86TTIImpl", ptr %6, i32 0, i32 1
  %11 = load ptr, ptr %10, align 8
  %12 = call noundef zeroext i1 @_ZNK4llvm12X86Subtarget6isAtomEv(ptr noundef nonnull align 8 dereferenceable(409248) %11)
  br i1 %12, label %13, label %14

13:                                               ; preds = %9
  store i32 1, ptr %3, align 4
  br label %20

14:                                               ; preds = %9
  %15 = getelementptr inbounds nuw %"class.llvm::X86TTIImpl", ptr %6, i32 0, i32 1
  %16 = load ptr, ptr %15, align 8
  %17 = call noundef zeroext i1 @_ZNK4llvm12X86Subtarget6hasAVXEv(ptr noundef nonnull align 8 dereferenceable(409248) %16)
  br i1 %17, label %18, label %19

18:                                               ; preds = %14
  store i32 4, ptr %3, align 4
  br label %20

19:                                               ; preds = %14
  store i32 2, ptr %3, align 4
  br label %20

20:                                               ; preds = %19, %18, %13, %8
  %21 = load i32, ptr %3, align 4
  ret i32 %21
}