; Function Attrs: mustprogress nofree norecurse nosync nounwind willreturn memory(read, inaccessiblemem: none) uwtable
define dso_local noundef range(i32 1, 5) i32 @_ZN4llvm10X86TTIImpl22getMaxInterleaveFactorENS_12ElementCountE(ptr noundef nonnull readonly align 8 captures(none) dereferenceable(72) %0, i64 %1) local_unnamed_addr #0 align 2 {
  %3 = and i64 %1, 8589934591
  %4 = icmp eq i64 %3, 1
  br i1 %4, label %15, label %5

5:                                                ; preds = %2
  %6 = getelementptr inbounds nuw i8, ptr %0, i64 16
  %7 = load ptr, ptr %6, align 8
  %8 = getelementptr inbounds nuw i8, ptr %7, i64 456
  %9 = load i8, ptr %8, align 8
  %10 = trunc i8 %9 to i1
  br i1 %10, label %15, label %11

11:                                               ; preds = %5
  %12 = getelementptr inbounds nuw i8, ptr %7, i64 304
  %13 = load i32, ptr %12, align 8
  %14 = icmp sgt i32 %13, 6
  %. = select i1 %14, i32 4, i32 2
  br label %15

15:                                               ; preds = %11, %5, %2
  %.0 = phi i32 [ 1, %2 ], [ 1, %5 ], [ %., %11 ]
  ret i32 %.0
}